target datalayout = "e-m:e-p270:32:32-p271:32:32-p272:64:64-i64:64-i128:128-f80:128-n8:16:32:64-S128"
target triple = "x86_64-pc-linux-gnu"

%struct.FxuMatrix = type { %struct.FxuListCube, %struct.FxuListVar, ptr, ptr, i32, i32, i32, ptr, %struct.FxuListSingle, ptr, i32, i32, ptr, ptr, ptr, ptr, ptr, ptr, ptr, i32, i32, i32, i32, ptr }
%struct.FxuListCube = type { ptr, ptr, i32 }
%struct.FxuListVar = type { ptr, ptr, i32 }
%struct.FxuListSingle = type { ptr, ptr, i32 }
%struct.FxuSingle = type { i32, i32, i32, ptr, ptr, ptr, ptr }

; Function Attrs: nounwind uwtable
define void @Fxu_ListMatrixAddSingle(ptr noundef %0, ptr noundef %1) #0 {
  %3 = alloca ptr, align 8
  %4 = alloca ptr, align 8
  %5 = alloca ptr, align 8
  store ptr %0, ptr %3, align 8, !tbaa !3
  store ptr %1, ptr %4, align 8, !tbaa !34
  call void @llvm.lifetime.start.p0(i64 8, ptr %5) #3
  %6 = load ptr, ptr %3, align 8, !tbaa !3
  %7 = getelementptr inbounds nuw %struct.FxuMatrix, ptr %6, i32 0, i32 8
  store ptr %7, ptr %5, align 8, !tbaa !36
  %8 = load ptr, ptr %5, align 8, !tbaa !36
  %9 = getelementptr inbounds nuw %struct.FxuListSingle, ptr %8, i32 0, i32 0
  %10 = load ptr, ptr %9, align 8, !tbaa !38
  %11 = icmp eq ptr %10, null
  br i1 %11, label %12, label %23

12:                                               ; preds = %2
  %13 = load ptr, ptr %4, align 8, !tbaa !34
  %14 = load ptr, ptr %5, align 8, !tbaa !36
  %15 = getelementptr inbounds nuw %struct.FxuListSingle, ptr %14, i32 0, i32 0
  store ptr %13, ptr %15, align 8, !tbaa !38
  %16 = load ptr, ptr %4, align 8, !tbaa !34
  %17 = load ptr, ptr %5, align 8, !tbaa !36
  %18 = getelementptr inbounds nuw %struct.FxuListSingle, ptr %17, i32 0, i32 1
  store ptr %16, ptr %18, align 8, !tbaa !40
  %19 = load ptr, ptr %4, align 8, !tbaa !34
  %20 = getelementptr inbounds nuw %struct.FxuSingle, ptr %19, i32 0, i32 5
  store ptr null, ptr %20, align 8, !tbaa !41
  %21 = load ptr, ptr %4, align 8, !tbaa !34
  %22 = getelementptr inbounds nuw %struct.FxuSingle, ptr %21, i32 0, i32 6
  store ptr null, ptr %22, align 8, !tbaa !43
  br label %39

23:                                               ; preds = %2
  %24 = load ptr, ptr %4, align 8, !tbaa !34
  %25 = getelementptr inbounds nuw %struct.FxuSingle, ptr %24, i32 0, i32 6
  store ptr null, ptr %25, align 8, !tbaa !43
  %26 = load ptr, ptr %4, align 8, !tbaa !34
  %27 = load ptr, ptr %5, align 8, !tbaa !36
  %28 = getelementptr inbounds nuw %struct.FxuListSingle, ptr %27, i32 0, i32 1
  %29 = load ptr, ptr %28, align 8, !tbaa !40
  %30 = getelementptr inbounds nuw %struct.FxuSingle, ptr %29, i32 0, i32 6
  store ptr %26, ptr %30, align 8, !tbaa !43
  %31 = load ptr, ptr %5, align 8, !tbaa !36
  %32 = getelementptr inbounds nuw %struct.FxuListSingle, ptr %31, i32 0, i32 1
  %33 = load ptr, ptr %32, align 8, !tbaa !40
  %34 = load ptr, ptr %4, align 8, !tbaa !34
  %35 = getelementptr inbounds nuw %struct.FxuSingle, ptr %34, i32 0, i32 5
  store ptr %33, ptr %35, align 8, !tbaa !41
  %36 = load ptr, ptr %4, align 8, !tbaa !34
  %37 = load ptr, ptr %5, align 8, !tbaa !36
  %38 = getelementptr inbounds nuw %struct.FxuListSingle, ptr %37, i32 0, i32 1
  store ptr %36, ptr %38, align 8, !tbaa !40
  br label %39

39:                                               ; preds = %23, %12
  %40 = load ptr, ptr %5, align 8, !tbaa !36
  %41 = getelementptr inbounds nuw %struct.FxuListSingle, ptr %40, i32 0, i32 2
  %42 = load i32, ptr %41, align 8, !tbaa !44
  %43 = add nsw i32 %42, 1
  store i32 %43, ptr %41, align 8, !tbaa !44
  call void @llvm.lifetime.end.p0(i64 8, ptr %5) #3
  ret void
}