; Function Attrs: mustprogress nofree norecurse nosync nounwind willreturn memory(write, argmem: readwrite, inaccessiblemem: none) uwtable
define void @Fxu_ListMatrixAddSingle(ptr noundef captures(none) %0, ptr noundef %1) local_unnamed_addr #0 {
  %3 = getelementptr inbounds nuw i8, ptr %0, i64 88
  %4 = load ptr, ptr %3, align 8, !tbaa !26
  %5 = icmp eq ptr %4, null
  br i1 %5, label %6, label %9

6:                                                ; preds = %2
  store ptr %1, ptr %3, align 8, !tbaa !26
  %7 = getelementptr inbounds nuw i8, ptr %0, i64 96
  store ptr %1, ptr %7, align 8, !tbaa !29
  %8 = getelementptr inbounds nuw i8, ptr %1, i64 40
  store ptr null, ptr %8, align 8, !tbaa !30
  br label %14

9:                                                ; preds = %2
  %10 = getelementptr inbounds nuw i8, ptr %1, i64 40
  store ptr null, ptr %10, align 8, !tbaa !30
  %11 = getelementptr inbounds nuw i8, ptr %0, i64 96
  %12 = load ptr, ptr %11, align 8, !tbaa !29
  %13 = getelementptr inbounds nuw i8, ptr %12, i64 40
  store ptr %1, ptr %13, align 8, !tbaa !30
  store ptr %1, ptr %11, align 8, !tbaa !29
  br label %14

14:                                               ; preds = %9, %6
  %.sink = phi ptr [ null, %6 ], [ %12, %9 ]
  %15 = getelementptr inbounds nuw i8, ptr %1, i64 32
  store ptr %.sink, ptr %15, align 8, !tbaa !32
  %16 = getelementptr inbounds nuw i8, ptr %0, i64 104
  %17 = load i32, ptr %16, align 8, !tbaa !33
  %18 = add nsw i32 %17, 1
  store i32 %18, ptr %16, align 8, !tbaa !33
  ret void
}